target datalayout = "e-m:e-p270:32:32-p271:32:32-p272:64:64-i64:64-i128:128-f80:128-n8:16:32:64-S128"
target triple = "x86_64-pc-linux-gnu"

%struct.Fraig_NodeVecStruct_t_ = type { i32, i32, ptr }

; Function Attrs: nounwind uwtable
define void @Fraig_NodeVecRemove(ptr noundef %0, ptr noundef %1) #0 {
  %3 = alloca ptr, align 8
  %4 = alloca ptr, align 8
  %5 = alloca i32, align 4
  store ptr %0, ptr %3, align 8, !tbaa !7
  store ptr %1, ptr %4, align 8, !tbaa !15
  call void @llvm.lifetime.start.p0(i64 4, ptr %5) #7
  store i32 0, ptr %5, align 4, !tbaa !3
  br label %6

6:                                                ; preds = %24, %2
  %7 = load i32, ptr %5, align 4, !tbaa !3
  %8 = load ptr, ptr %3, align 8, !tbaa !7
  %9 = getelementptr inbounds nuw %struct.Fraig_NodeVecStruct_t_, ptr %8, i32 0, i32 1
  %10 = load i32, ptr %9, align 4, !tbaa !10
  %11 = icmp slt i32 %7, %10
  br i1 %11, label %12, label %27

12:                                               ; preds = %6
  %13 = load ptr, ptr %3, align 8, !tbaa !7
  %14 = getelementptr inbounds nuw %struct.Fraig_NodeVecStruct_t_, ptr %13, i32 0, i32 2
  %15 = load ptr, ptr %14, align 8, !tbaa !14
  %16 = load i32, ptr %5, align 4, !tbaa !3
  %17 = sext i32 %16 to i64
  %18 = getelementptr inbounds ptr, ptr %15, i64 %17
  %19 = load ptr, ptr %18, align 8, !tbaa !15
  %20 = load ptr, ptr %4, align 8, !tbaa !15
  %21 = icmp eq ptr %19, %20
  br i1 %21, label %22, label %23

22:                                               ; preds = %12
  br label %27

23:                                               ; preds = %12
  br label %24

24:                                               ; preds = %23
  %25 = load i32, ptr %5, align 4, !tbaa !3
  %26 = add nsw i32 %25, 1
  store i32 %26, ptr %5, align 4, !tbaa !3
  br label %6, !llvm.loop !26

27:                                               ; preds = %22, %6
  %28 = load i32, ptr %5, align 4, !tbaa !3
  %29 = add nsw i32 %28, 1
  store i32 %29, ptr %5, align 4, !tbaa !3
  br label %30

30:                                               ; preds = %51, %27
  %31 = load i32, ptr %5, align 4, !tbaa !3
  %32 = load ptr, ptr %3, align 8, !tbaa !7
  %33 = getelementptr inbounds nuw %struct.Fraig_NodeVecStruct_t_, ptr %32, i32 0, i32 1
  %34 = load i32, ptr %33, align 4, !tbaa !10
  %35 = icmp slt i32 %31, %34
  br i1 %35, label %36, label %54

36:                                               ; preds = %30
  %37 = load ptr, ptr %3, align 8, !tbaa !7
  %38 = getelementptr inbounds nuw %struct.Fraig_NodeVecStruct_t_, ptr %37, i32 0, i32 2
  %39 = load ptr, ptr %38, align 8, !tbaa !14
  %40 = load i32, ptr %5, align 4, !tbaa !3
  %41 = sext i32 %40 to i64
  %42 = getelementptr inbounds ptr, ptr %39, i64 %41
  %43 = load ptr, ptr %42, align 8, !tbaa !15
  %44 = load ptr, ptr %3, align 8, !tbaa !7
  %45 = getelementptr inbounds nuw %struct.Fraig_NodeVecStruct_t_, ptr %44, i32 0, i32 2
  %46 = load ptr, ptr %45, align 8, !tbaa !14
  %47 = load i32, ptr %5, align 4, !tbaa !3
  %48 = sub nsw i32 %47, 1
  %49 = sext i32 %48 to i64
  %50 = getelementptr inbounds ptr, ptr %46, i64 %49
  store ptr %43, ptr %50, align 8, !tbaa !15
  br label %51

51:                                               ; preds = %36
  %52 = load i32, ptr %5, align 4, !tbaa !3
  %53 = add nsw i32 %52, 1
  store i32 %53, ptr %5, align 4, !tbaa !3
  br label %30, !llvm.loop !27

54:                                               ; preds = %30
  %55 = load ptr, ptr %3, align 8, !tbaa !7
  %56 = getelementptr inbounds nuw %struct.Fraig_NodeVecStruct_t_, ptr %55, i32 0, i32 1
  %57 = load i32, ptr %56, align 4, !tbaa !10
  %58 = add nsw i32 %57, -1
  store i32 %58, ptr %56, align 4, !tbaa !10
  call void @llvm.lifetime.end.p0(i64 4, ptr %5) #7
  ret void
}