; Function Attrs: nofree norecurse nosync nounwind memory(readwrite, inaccessiblemem: none) uwtable
define void @Fraig_NodeVecRemove(ptr noundef captures(none) %0, ptr noundef readnone %1) local_unnamed_addr #11 {
  %3 = getelementptr inbounds nuw i8, ptr %0, i64 4
  %4 = load i32, ptr %3, align 4, !tbaa !3
  %5 = icmp sgt i32 %4, 0
  br i1 %5, label %.lr.ph, label %._crit_edge

.lr.ph:                                           ; preds = %2
  %6 = getelementptr inbounds nuw i8, ptr %0, i64 8
  %7 = load ptr, ptr %6, align 8, !tbaa !11
  %wide.trip.count = zext nneg i32 %4 to i64
  br label %8

8:                                                ; preds = %.lr.ph, %12
  %indvars.iv = phi i64 [ 0, %.lr.ph ], [ %indvars.iv.next, %12 ]
  %9 = getelementptr inbounds nuw ptr, ptr %7, i64 %indvars.iv
  %10 = load ptr, ptr %9, align 8, !tbaa !12
  %11 = icmp eq ptr %10, %1
  br i1 %11, label %._crit_edge.loopexit.split.loop.exit, label %12

12:                                               ; preds = %8
  %indvars.iv.next = add nuw nsw i64 %indvars.iv, 1
  %exitcond.not = icmp eq i64 %indvars.iv.next, %wide.trip.count
  br i1 %exitcond.not, label %._crit_edge, label %8, !llvm.loop !24

._crit_edge.loopexit.split.loop.exit:             ; preds = %8
  %13 = trunc nuw nsw i64 %indvars.iv to i32
  br label %._crit_edge

._crit_edge:                                      ; preds = %12, %._crit_edge.loopexit.split.loop.exit, %2
  %.0.lcssa = phi i32 [ 0, %2 ], [ %13, %._crit_edge.loopexit.split.loop.exit ], [ %4, %12 ]
  %.121 = add nuw nsw i32 %.0.lcssa, 1
  %14 = icmp slt i32 %.121, %4
  br i1 %14, label %.lr.ph25, label %._crit_edge26

.lr.ph25:                                         ; preds = %._crit_edge
  %15 = getelementptr inbounds nuw i8, ptr %0, i64 8
  %16 = load ptr, ptr %15, align 8, !tbaa !11
  %17 = zext i32 %.0.lcssa to i64
  %18 = add nuw nsw i64 %17, 1
  br label %19

19:                                               ; preds = %.lr.ph25, %19
  %indvars.iv28 = phi i64 [ %18, %.lr.ph25 ], [ %indvars.iv.next29, %19 ]
  %.1.in22 = phi i32 [ %.0.lcssa, %.lr.ph25 ], [ %26, %19 ]
  %20 = getelementptr inbounds nuw ptr, ptr %16, i64 %indvars.iv28
  %21 = load ptr, ptr %20, align 8, !tbaa !12
  %22 = zext nneg i32 %.1.in22 to i64
  %23 = getelementptr inbounds nuw ptr, ptr %16, i64 %22
  store ptr %21, ptr %23, align 8, !tbaa !12
  %indvars.iv.next29 = add nuw nsw i64 %indvars.iv28, 1
  %24 = trunc nuw i64 %indvars.iv.next29 to i32
  %25 = icmp sgt i32 %4, %24
  %26 = trunc nuw i64 %indvars.iv28 to i32
  br i1 %25, label %19, label %._crit_edge26, !llvm.loop !25

._crit_edge26:                                    ; preds = %19, %._crit_edge
  %27 = add nsw i32 %4, -1
  store i32 %27, ptr %3, align 4, !tbaa !3
  ret void
}